(lp1
(lp2
(F110000000000.00002
L100000000000L
F1e-08
F1e-14
F1
F0
F1
I00
tp3
a(lp4
F3.7076356415777843e-08
a(cnumpy.core.multiarray
scalar
p5
(cnumpy
dtype
p6
(S'f8'
I0
I1
tRp7
(I3
S'<'
NNNI-1
I-1
I0
tbS'q\xdfz\x91\xe3)\xc39'
tRp8
g5
(g7
S'L\x9c\xa6 x\x0c\xd3B'
tRp9
tp10
a(g5
(g7
S'q\xdfz\x91\xe3)\xc39'
tRp11
g9
tp12
a(g5
(g7
S'Y\x9c\x8cK\xc1\x97\xf2:'
tRp13
g5
(g7
S'\xa0\x00VKoY;B'
tRp14
tp15
aI01
aaa(lp16
(F110000000000.00002
L100000000000L
F9.9999999999999998e-17
F1.0000000000000001e-18
F0.10000000000000001
F0.16666666666666666
F1
I00
tp17
a(lp18
F7.0371657611551227e-11
a(g5
(g7
S'\x9e\xc3\x1a\xd89\x17\x817'
tRp19
g5
(g7
S'\xcb\x95-KMg\x06D'
tRp20
tp21
a(g5
(g7
S'\xfb\xf0?\xf6\x06?w7'
tRp22
g5
(g7
S'J\xc3\xb4o\x92u\xf8C'
tRp23
tp24
aI00
aaa(lp25
(F110000000000.00002
L100000000000L
F1e-13
F9.9999999999999998e-20
F1
F0
F1
I00
tp26
a(lp27
F1.1534009208499683e-09
a(g5
(g7
S'\x0f\xf3s\x06\xd2\xd1\x828'
tRp28
g5
(g7
S'D\x9cU\xfa\xa9}\x85C'
tRp29
tp30
a(g5
(g7
S'\xac\x88\x12\xc5\xc9\x8ay8'
tRp31
g5
(g7
S'\xd7\xbc\x8c\x7f\x86UwC'
tRp32
tp33
aI00
aaa(lp34
(F110000000000.00002
L100000000000L
F1e-14
F9.9999999999999998e-20
F1
F0
F1
I00
tp35
a(lp36
F5.5023944927152239e-10
a(g5
(g7
S'\x14\xcf\x9a\x9651?8'
tRp37
g5
(g7
S'l\xfa\x1f\x8b\x89\x9b\xa7C'
tRp38
tp39
a(g5
(g7
S'\n\x17\xc0R\xcc*58'
tRp40
g5
(g7
S'\xbe\x06\xce\xa4\xdf\xa1\x99C'
tRp41
tp42
aI00
aaa.